target datalayout = "e-m:e-p270:32:32-p271:32:32-p272:64:64-i64:64-i128:128-f80:128-n8:16:32:64-S128"
target triple = "x86_64-unknown-linux-gnu"

%class.mpz = type { i32, i8, ptr }
%class.svector = type { %class.vector }
%class.vector = type { ptr }
%"class.polynomial::manager" = type { ptr }
%"struct.polynomial::manager::imp" = type { ptr, ptr, %class.mpzzp_manager, %"class.upolynomial::manager", ptr, %class.ptr_vector, %class.id_gen, ptr, ptr, %class.mpz, ptr, %"class.polynomial::monomial2pos", %"class.polynomial::tmp_monomial", %class.svector.1, %class.svector.1, %class.ptr_vector.4, %class.svector, i8, i8, %"class.polynomial::manager::imp::som_buffer", %"class.polynomial::manager::imp::som_buffer", %"class.polynomial::manager::imp::cheap_som_buffer", %"class.polynomial::manager::imp::cheap_som_buffer", %class.vector.6, %class.svector, %class.svector.7, %class.svector, %"class.polynomial::manager::imp::som_buffer_vector", %"class.polynomial::manager::imp::newton_interpolator_vector", %class.scoped_ptr_vector, %"class.polynomial::manager::imp::var_max_degree", %"struct.polynomial::manager::imp::var_pos", %"class.polynomial::manager::imp::som_buffer_vector" }
%class.mpzzp_manager = type { ptr, i8, %class.mpz, %class.mpz, %class.mpz, i8, %class.mpz, %class.mpz, %class.mpz, %class.mpz }
%"class.upolynomial::manager" = type { %"class.upolynomial::core_manager", %class.svector.1, %class.svector.1, %class.svector.1, %class.svector.1, %class.svector.1 }
%"class.upolynomial::core_manager" = type { ptr, %class.mpzzp_manager, %class.svector.1, %class.svector.1, %class.svector.1, %class.svector.1, %class.svector.1, %class.svector.1, %class.svector.1, [6 x %class.svector.1], %class.svector.1, %class.svector.1, %class.svector.1 }
%class.ptr_vector = type { %class.vector.3 }
%class.vector.3 = type { ptr }
%class.id_gen = type { i32, %class.svector }
%"class.polynomial::monomial2pos" = type { %class.svector }
%"class.polynomial::tmp_monomial" = type <{ ptr, i32, [4 x i8] }>
%class.svector.1 = type { %class.vector.2 }
%class.vector.2 = type { ptr }
%class.ptr_vector.4 = type { %class.vector.5 }
%class.vector.5 = type { ptr }
%"class.polynomial::manager::imp::som_buffer" = type { ptr, %"class.polynomial::monomial2pos", %class.svector.1, %class.ptr_vector.4 }
%"class.polynomial::manager::imp::cheap_som_buffer" = type { ptr, %class.svector.1, %class.ptr_vector.4 }
%class.vector.6 = type { ptr }
%class.svector.7 = type { %class.vector.8 }
%class.vector.8 = type { ptr }
%"class.polynomial::manager::imp::newton_interpolator_vector" = type { ptr, %class.ptr_vector.11 }
%class.ptr_vector.11 = type { %class.vector.12 }
%class.vector.12 = type { ptr }
%class.scoped_ptr_vector = type { %class.ptr_vector.13 }
%class.ptr_vector.13 = type { %class.vector.14 }
%class.vector.14 = type { ptr }
%"class.polynomial::manager::imp::var_max_degree" = type { %class.svector, %class.svector }
%"struct.polynomial::manager::imp::var_pos" = type { %class.svector }
%"class.polynomial::manager::imp::som_buffer_vector" = type { ptr, %class.ptr_vector.9 }
%class.ptr_vector.9 = type { %class.vector.10 }
%class.vector.10 = type { ptr }
%"class.polynomial::monomial_manager" = type { i32, ptr, i8, %class.chashtable, %class.id_gen, i32, ptr, %"class.polynomial::tmp_monomial", %"class.polynomial::tmp_monomial", %"class.polynomial::tmp_monomial", %"class.polynomial::tmp_monomial", %class.svector.19 }
%class.chashtable = type { ptr, i32, i32, i32, i32, i32, i32, i32, ptr, ptr, ptr }
%class.svector.19 = type { %class.vector.20 }
%class.vector.20 = type { ptr }

; Function Attrs: mustprogress nounwind uwtable
define linkonce_odr hidden noundef zeroext i1 @_ZN11mpz_managerILb0EE8is_smallERK3mpz(ptr noundef nonnull align 8 dereferenceable(16) %a) #4 comdat align 2 {
entry:
  %a.addr = alloca ptr, align 8
  store ptr %a, ptr %a.addr, align 8
  %0 = load ptr, ptr %a.addr, align 8
  %m_kind = getelementptr inbounds %class.mpz, ptr %0, i32 0, i32 1
  %bf.load = load i8, ptr %m_kind, align 4
  %bf.clear = and i8 %bf.load, 1
  %bf.cast = zext i8 %bf.clear to i32
  %cmp = icmp eq i32 %bf.cast, 0
  ret i1 %cmp
}

; Function Attrs: mustprogress nounwind uwtable
define linkonce_odr hidden noundef i32 @_ZN11mpz_managerILb0EE4signERK3mpz(ptr noundef nonnull align 8 dereferenceable(16) %a) #4 comdat align 2 {
entry:
  %a.addr = alloca ptr, align 8
  store ptr %a, ptr %a.addr, align 8
  %0 = load ptr, ptr %a.addr, align 8
  %m_val = getelementptr inbounds %class.mpz, ptr %0, i32 0, i32 0
  %1 = load i32, ptr %m_val, align 8
  ret i32 %1
}

; Function Attrs: mustprogress nounwind uwtable
define linkonce_odr hidden void @_ZN6vectorIPN10polynomial8monomialELb0EjE5resetEv(ptr noundef nonnull align 8 dereferenceable(8) %this) #4 comdat align 2 {
entry:
  %this.addr = alloca ptr, align 8
  store ptr %this, ptr %this.addr, align 8
  %this1 = load ptr, ptr %this.addr, align 8
  %m_data = getelementptr inbounds %class.vector.5, ptr %this1, i32 0, i32 0
  %0 = load ptr, ptr %m_data, align 8
  %tobool = icmp ne ptr %0, null
  br i1 %tobool, label %if.then, label %if.end

if.then:                                          ; preds = %entry
  %m_data2 = getelementptr inbounds %class.vector.5, ptr %this1, i32 0, i32 0
  %1 = load ptr, ptr %m_data2, align 8
  %arrayidx = getelementptr inbounds i32, ptr %1, i64 -1
  store i32 0, ptr %arrayidx, align 4
  br label %if.end

if.end:                                           ; preds = %if.then, %entry
  ret void
}

; Function Attrs: mustprogress nounwind uwtable
define linkonce_odr hidden void @_ZN6vectorI3mpzLb0EjE5resetEv(ptr noundef nonnull align 8 dereferenceable(8) %this) #4 comdat align 2 {
entry:
  %this.addr = alloca ptr, align 8
  store ptr %this, ptr %this.addr, align 8
  %this1 = load ptr, ptr %this.addr, align 8
  %m_data = getelementptr inbounds %class.vector.2, ptr %this1, i32 0, i32 0
  %0 = load ptr, ptr %m_data, align 8
  %tobool = icmp ne ptr %0, null
  br i1 %tobool, label %if.then, label %if.end

if.then:                                          ; preds = %entry
  %m_data2 = getelementptr inbounds %class.vector.2, ptr %this1, i32 0, i32 0
  %1 = load ptr, ptr %m_data2, align 8
  %arrayidx = getelementptr inbounds i32, ptr %1, i64 -1
  store i32 0, ptr %arrayidx, align 4
  br label %if.end

if.end:                                           ; preds = %if.then, %entry
  ret void
}

; Function Attrs: mustprogress nounwind uwtable
define linkonce_odr hidden noundef ptr @_ZNK6vectorIPN10polynomial8monomialELb0EjE4dataEv(ptr noundef nonnull align 8 dereferenceable(8) %this) #4 comdat align 2 {
entry:
  %this.addr = alloca ptr, align 8
  store ptr %this, ptr %this.addr, align 8
  %this1 = load ptr, ptr %this.addr, align 8
  %m_data = getelementptr inbounds %class.vector.5, ptr %this1, i32 0, i32 0
  %0 = load ptr, ptr %m_data, align 8
  ret ptr %0
}

; Function Attrs: mustprogress nounwind uwtable
define linkonce_odr hidden noundef ptr @_ZNK6vectorI3mpzLb0EjE4dataEv(ptr noundef nonnull align 8 dereferenceable(8) %this) #4 comdat align 2 {
entry:
  %this.addr = alloca ptr, align 8
  store ptr %this, ptr %this.addr, align 8
  %this1 = load ptr, ptr %this.addr, align 8
  %m_data = getelementptr inbounds %class.vector.2, ptr %this1, i32 0, i32 0
  %0 = load ptr, ptr %m_data, align 8
  ret ptr %0
}

; Function Attrs: mustprogress nounwind uwtable
define linkonce_odr hidden noundef i32 @_ZNK6vectorI3mpzLb0EjE4sizeEv(ptr noundef nonnull align 8 dereferenceable(8) %this) #4 comdat align 2 {
entry:
  %retval = alloca i32, align 4
  %this.addr = alloca ptr, align 8
  store ptr %this, ptr %this.addr, align 8
  %this1 = load ptr, ptr %this.addr, align 8
  %m_data = getelementptr inbounds %class.vector.2, ptr %this1, i32 0, i32 0
  %0 = load ptr, ptr %m_data, align 8
  %cmp = icmp eq ptr %0, null
  br i1 %cmp, label %if.then, label %if.end

if.then:                                          ; preds = %entry
  store i32 0, ptr %retval, align 4
  br label %return

if.end:                                           ; preds = %entry
  %m_data2 = getelementptr inbounds %class.vector.2, ptr %this1, i32 0, i32 0
  %1 = load ptr, ptr %m_data2, align 8
  %arrayidx = getelementptr inbounds i32, ptr %1, i64 -1
  %2 = load i32, ptr %arrayidx, align 4
  store i32 %2, ptr %retval, align 4
  br label %return

return:                                           ; preds = %if.end, %if.then
  %3 = load i32, ptr %retval, align 4
  ret i32 %3
}

; Function Attrs: mustprogress nounwind uwtable
define linkonce_odr hidden noundef ptr @_ZN10polynomial16monomial_manager7mk_unitEv(ptr noundef nonnull align 8 dereferenceable(192) %this) #4 comdat align 2 {
entry:
  %this.addr = alloca ptr, align 8
  store ptr %this, ptr %this.addr, align 8
  %this1 = load ptr, ptr %this.addr, align 8
  %m_unit = getelementptr inbounds %"class.polynomial::monomial_manager", ptr %this1, i32 0, i32 6
  %0 = load ptr, ptr %m_unit, align 8
  ret ptr %0
}

; Function Attrs: mustprogress nounwind uwtable
define linkonce_odr hidden noundef nonnull align 8 dereferenceable(192) ptr @_ZNK10polynomial7manager3imp2mmEv(ptr noundef nonnull align 8 dereferenceable(824) %this) #4 comdat align 2 {
entry:
  %this.addr = alloca ptr, align 8
  store ptr %this, ptr %this.addr, align 8
  %this1 = load ptr, ptr %this.addr, align 8
  %m_monomial_manager = getelementptr inbounds %"struct.polynomial::manager::imp", ptr %this1, i32 0, i32 4
  %0 = load ptr, ptr %m_monomial_manager, align 8
  ret ptr %0
}

; Function Attrs: mustprogress nounwind uwtable
define linkonce_odr hidden noundef zeroext i1 @_ZN11mpz_managerILb0EE6is_oneERK3mpz(ptr noundef nonnull align 8 dereferenceable(16) %a) #4 comdat align 2 {
entry:
  %a.addr = alloca ptr, align 8
  store ptr %a, ptr %a.addr, align 8
  %0 = load ptr, ptr %a.addr, align 8
  %call = call noundef zeroext i1 @_ZN11mpz_managerILb0EE8is_smallERK3mpz(ptr noundef nonnull align 8 dereferenceable(16) %0)
  br i1 %call, label %land.rhs, label %land.end

land.rhs:                                         ; preds = %entry
  %1 = load ptr, ptr %a.addr, align 8
  %m_val = getelementptr inbounds %class.mpz, ptr %1, i32 0, i32 0
  %2 = load i32, ptr %m_val, align 8
  %cmp = icmp eq i32 %2, 1
  br label %land.end

land.end:                                         ; preds = %land.rhs, %entry
  %3 = phi i1 [ false, %entry ], [ %cmp, %land.rhs ]
  ret i1 %3
}

; Function Attrs: mustprogress uwtable
define linkonce_odr hidden noundef zeroext i1 @_ZN11mpz_managerILb0EE7is_zeroERK3mpz(ptr noundef nonnull align 8 dereferenceable(16) %a) #5 comdat align 2 {
entry:
  %a.addr = alloca ptr, align 8
  store ptr %a, ptr %a.addr, align 8
  %0 = load ptr, ptr %a.addr, align 8
  %call = call noundef i32 @_ZN11mpz_managerILb0EE4signERK3mpz(ptr noundef nonnull align 8 dereferenceable(16) %0)
  %cmp = icmp eq i32 %call, 0
  ret i1 %cmp
}

; Function Attrs: mustprogress uwtable
define linkonce_odr hidden noundef ptr @_ZN10polynomial7manager3imp16cheap_som_buffer2mkEv(ptr noundef nonnull align 8 dereferenceable(24) %this) #5 comdat align 2 {
entry:
  %this.addr = alloca ptr, align 8
  %new_p = alloca ptr, align 8
  store ptr %this, ptr %this.addr, align 8
  %this1 = load ptr, ptr %this.addr, align 8
  %m_owner = getelementptr inbounds %"class.polynomial::manager::imp::cheap_som_buffer", ptr %this1, i32 0, i32 0
  %0 = load ptr, ptr %m_owner, align 8
  %m_tmp_as = getelementptr inbounds %"class.polynomial::manager::imp::cheap_som_buffer", ptr %this1, i32 0, i32 1
  %call = call noundef i32 @_ZNK6vectorI3mpzLb0EjE4sizeEv(ptr noundef nonnull align 8 dereferenceable(8) %m_tmp_as)
  %m_tmp_as2 = getelementptr inbounds %"class.polynomial::manager::imp::cheap_som_buffer", ptr %this1, i32 0, i32 1
  %call3 = call noundef ptr @_ZNK6vectorI3mpzLb0EjE4dataEv(ptr noundef nonnull align 8 dereferenceable(8) %m_tmp_as2)
  %m_tmp_ms = getelementptr inbounds %"class.polynomial::manager::imp::cheap_som_buffer", ptr %this1, i32 0, i32 2
  %call4 = call noundef ptr @_ZNK6vectorIPN10polynomial8monomialELb0EjE4dataEv(ptr noundef nonnull align 8 dereferenceable(8) %m_tmp_ms)
  %call5 = call noundef ptr @_ZN10polynomial7manager3imp18mk_polynomial_coreEjP3mpzPKPNS_8monomialE(ptr noundef nonnull align 8 dereferenceable(824) %0, i32 noundef %call, ptr noundef %call3, ptr noundef %call4)
  store ptr %call5, ptr %new_p, align 8
  %m_tmp_as6 = getelementptr inbounds %"class.polynomial::manager::imp::cheap_som_buffer", ptr %this1, i32 0, i32 1
  call void @_ZN6vectorI3mpzLb0EjE5resetEv(ptr noundef nonnull align 8 dereferenceable(8) %m_tmp_as6)
  %m_tmp_ms7 = getelementptr inbounds %"class.polynomial::manager::imp::cheap_som_buffer", ptr %this1, i32 0, i32 2
  call void @_ZN6vectorIPN10polynomial8monomialELb0EjE5resetEv(ptr noundef nonnull align 8 dereferenceable(8) %m_tmp_ms7)
  %1 = load ptr, ptr %new_p, align 8
  ret ptr %1
}

; Function Attrs: mustprogress uwtable
define linkonce_odr hidden noundef ptr @_ZN10polynomial7manager3imp7mk_unitEv(ptr noundef nonnull align 8 dereferenceable(824) %this) #5 comdat align 2 {
entry:
  %this.addr = alloca ptr, align 8
  store ptr %this, ptr %this.addr, align 8
  %this1 = load ptr, ptr %this.addr, align 8
  %call = call noundef nonnull align 8 dereferenceable(192) ptr @_ZNK10polynomial7manager3imp2mmEv(ptr noundef nonnull align 8 dereferenceable(824) %this1)
  %call2 = call noundef ptr @_ZN10polynomial16monomial_manager7mk_unitEv(ptr noundef nonnull align 8 dereferenceable(192) %call)
  ret ptr %call2
}

; Function Attrs: mustprogress uwtable
define linkonce_odr hidden noundef zeroext i1 @_ZN13mpzzp_manager6is_oneERK3mpz(ptr noundef nonnull align 8 dereferenceable(136) %this, ptr noundef nonnull align 8 dereferenceable(16) %a) #5 comdat align 2 {
entry:
  %this.addr = alloca ptr, align 8
  %a.addr = alloca ptr, align 8
  store ptr %this, ptr %this.addr, align 8
  store ptr %a, ptr %a.addr, align 8
  %0 = load ptr, ptr %a.addr, align 8
  %call = call noundef zeroext i1 @_ZN11mpz_managerILb0EE6is_oneERK3mpz(ptr noundef nonnull align 8 dereferenceable(16) %0)
  ret i1 %call
}

; Function Attrs: mustprogress uwtable
define linkonce_odr hidden noundef zeroext i1 @_ZN13mpzzp_manager7is_zeroERK3mpz(ptr noundef nonnull align 8 dereferenceable(136) %this, ptr noundef nonnull align 8 dereferenceable(16) %a) #5 comdat align 2 {
entry:
  %this.addr = alloca ptr, align 8
  %a.addr = alloca ptr, align 8
  store ptr %this, ptr %this.addr, align 8
  store ptr %a, ptr %a.addr, align 8
  %0 = load ptr, ptr %a.addr, align 8
  %call = call noundef zeroext i1 @_ZN11mpz_managerILb0EE7is_zeroERK3mpz(ptr noundef nonnull align 8 dereferenceable(16) %0)
  ret i1 %call
}

; Function Attrs: mustprogress uwtable
define linkonce_odr hidden noundef ptr @_ZN10polynomial7manager3imp3mulERK3mpzPKNS_8monomialEPKNS_10polynomialE(ptr noundef nonnull align 8 dereferenceable(824) %this, ptr noundef nonnull align 8 dereferenceable(16) %a, ptr noundef %m, ptr noundef %p) #5 comdat align 2 {
entry:
  %retval = alloca ptr, align 8
  %this.addr = alloca ptr, align 8
  %a.addr = alloca ptr, align 8
  %m.addr = alloca ptr, align 8
  %p.addr = alloca ptr, align 8
  store ptr %this, ptr %this.addr, align 8
  store ptr %a, ptr %a.addr, align 8
  store ptr %m, ptr %m.addr, align 8
  store ptr %p, ptr %p.addr, align 8
  %this1 = load ptr, ptr %this.addr, align 8
  %m_manager = getelementptr inbounds %"struct.polynomial::manager::imp", ptr %this1, i32 0, i32 2
  %0 = load ptr, ptr %a.addr, align 8
  %call = call noundef zeroext i1 @_ZN13mpzzp_manager7is_zeroERK3mpz(ptr noundef nonnull align 8 dereferenceable(136) %m_manager, ptr noundef nonnull align 8 dereferenceable(16) %0)
  br i1 %call, label %if.then, label %if.end

if.then:                                          ; preds = %entry
  %m_zero = getelementptr inbounds %"struct.polynomial::manager::imp", ptr %this1, i32 0, i32 8
  %1 = load ptr, ptr %m_zero, align 8
  store ptr %1, ptr %retval, align 8
  br label %return

if.end:                                           ; preds = %entry
  %m_manager2 = getelementptr inbounds %"struct.polynomial::manager::imp", ptr %this1, i32 0, i32 2
  %2 = load ptr, ptr %a.addr, align 8
  %call3 = call noundef zeroext i1 @_ZN13mpzzp_manager6is_oneERK3mpz(ptr noundef nonnull align 8 dereferenceable(136) %m_manager2, ptr noundef nonnull align 8 dereferenceable(16) %2)
  br i1 %call3, label %land.lhs.true, label %if.end6

land.lhs.true:                                    ; preds = %if.end
  %3 = load ptr, ptr %m.addr, align 8
  %call4 = call noundef ptr @_ZN10polynomial7manager3imp7mk_unitEv(ptr noundef nonnull align 8 dereferenceable(824) %this1)
  %cmp = icmp eq ptr %3, %call4
  br i1 %cmp, label %if.then5, label %if.end6

if.then5:                                         ; preds = %land.lhs.true
  %4 = load ptr, ptr %p.addr, align 8
  store ptr %4, ptr %retval, align 8
  br label %return

if.end6:                                          ; preds = %land.lhs.true, %if.end
  %m_cheap_som_buffer = getelementptr inbounds %"struct.polynomial::manager::imp", ptr %this1, i32 0, i32 21
  %5 = load ptr, ptr %a.addr, align 8
  %6 = load ptr, ptr %m.addr, align 8
  %7 = load ptr, ptr %p.addr, align 8
  call void @_ZN10polynomial7manager3imp16cheap_som_buffer6addmulERK3mpzPKNS_8monomialEPKNS_10polynomialE(ptr noundef nonnull align 8 dereferenceable(24) %m_cheap_som_buffer, ptr noundef nonnull align 8 dereferenceable(16) %5, ptr noundef %6, ptr noundef %7)
  %m_cheap_som_buffer7 = getelementptr inbounds %"struct.polynomial::manager::imp", ptr %this1, i32 0, i32 21
  %call8 = call noundef ptr @_ZN10polynomial7manager3imp16cheap_som_buffer2mkEv(ptr noundef nonnull align 8 dereferenceable(24) %m_cheap_som_buffer7)
  store ptr %call8, ptr %retval, align 8
  br label %return

return:                                           ; preds = %if.end6, %if.then5, %if.then
  %8 = load ptr, ptr %retval, align 8
  ret ptr %8
}

; Function Attrs: mustprogress nounwind uwtable
define linkonce_odr hidden void @_ZN3mpzC2Ei(ptr noundef nonnull align 8 dereferenceable(16) %this, i32 noundef %v) unnamed_addr #4 comdat align 2 {
entry:
  %this.addr = alloca ptr, align 8
  %v.addr = alloca i32, align 4
  store ptr %this, ptr %this.addr, align 8
  store i32 %v, ptr %v.addr, align 4
  %this1 = load ptr, ptr %this.addr, align 8
  %m_val = getelementptr inbounds %class.mpz, ptr %this1, i32 0, i32 0
  %0 = load i32, ptr %v.addr, align 4
  store i32 %0, ptr %m_val, align 8
  %m_kind = getelementptr inbounds %class.mpz, ptr %this1, i32 0, i32 1
  %bf.load = load i8, ptr %m_kind, align 4
  %bf.clear = and i8 %bf.load, -2
  %bf.set = or i8 %bf.clear, 0
  store i8 %bf.set, ptr %m_kind, align 4
  %m_owner = getelementptr inbounds %class.mpz, ptr %this1, i32 0, i32 1
  %bf.load2 = load i8, ptr %m_owner, align 4
  %bf.clear3 = and i8 %bf.load2, -3
  %bf.set4 = or i8 %bf.clear3, 0
  store i8 %bf.set4, ptr %m_owner, align 4
  %m_ptr = getelementptr inbounds %class.mpz, ptr %this1, i32 0, i32 2
  store ptr null, ptr %m_ptr, align 8
  ret void
}

; Function Attrs: mustprogress uwtable
define linkonce_odr hidden noundef ptr @_ZN10polynomial7manager3imp3mulEPKNS_8monomialEPKNS_10polynomialE(ptr noundef nonnull align 8 dereferenceable(824) %this, ptr noundef %m, ptr noundef %p) #5 comdat align 2 {
entry:
  %this.addr = alloca ptr, align 8
  %m.addr = alloca ptr, align 8
  %p.addr = alloca ptr, align 8
  %one = alloca %class.mpz, align 8
  store ptr %this, ptr %this.addr, align 8
  store ptr %m, ptr %m.addr, align 8
  store ptr %p, ptr %p.addr, align 8
  %this1 = load ptr, ptr %this.addr, align 8
  call void @_ZN3mpzC2Ei(ptr noundef nonnull align 8 dereferenceable(16) %one, i32 noundef 1)
  %0 = load ptr, ptr %m.addr, align 8
  %1 = load ptr, ptr %p.addr, align 8
  %call = call noundef ptr @_ZN10polynomial7manager3imp3mulERK3mpzPKNS_8monomialEPKNS_10polynomialE(ptr noundef nonnull align 8 dereferenceable(824) %this1, ptr noundef nonnull align 8 dereferenceable(16) %one, ptr noundef %0, ptr noundef %1)
  ret ptr %call
}

; Function Attrs: mustprogress uwtable
define hidden noundef ptr @_ZN10polynomial7manager3mulEPKNS_8monomialEPKNS_10polynomialE(ptr noundef nonnull align 8 dereferenceable(8) %this, ptr noundef %m, ptr noundef %p) #5 align 2 {
entry:
  %this.addr = alloca ptr, align 8
  %m.addr = alloca ptr, align 8
  %p.addr = alloca ptr, align 8
  store ptr %this, ptr %this.addr, align 8
  store ptr %m, ptr %m.addr, align 8
  store ptr %p, ptr %p.addr, align 8
  %this1 = load ptr, ptr %this.addr, align 8
  %m_imp = getelementptr inbounds %"class.polynomial::manager", ptr %this1, i32 0, i32 0
  %0 = load ptr, ptr %m_imp, align 8
  %1 = load ptr, ptr %m.addr, align 8
  %2 = load ptr, ptr %p.addr, align 8
  %call = call noundef ptr @_ZN10polynomial7manager3imp3mulEPKNS_8monomialEPKNS_10polynomialE(ptr noundef nonnull align 8 dereferenceable(824) %0, ptr noundef %1, ptr noundef %2)
  ret ptr %call
}