; Function Attrs: mustprogress uwtable
define hidden noundef ptr @_ZN10polynomial7manager3mulEPKNS_8monomialEPKNS_10polynomialE(ptr nocapture noundef nonnull readonly align 8 dereferenceable(8) %this, ptr noundef %m, ptr noundef %p) local_unnamed_addr #4 align 2 {
entry:
  %one.i = alloca %class.mpz, align 8
  %0 = load ptr, ptr %this, align 8
  call void @llvm.lifetime.start.p0(i64 16, ptr nonnull %one.i)
  store i32 1, ptr %one.i, align 8
  %m_kind.i.i = getelementptr inbounds i8, ptr %one.i, i64 4
  store i8 0, ptr %m_kind.i.i, align 4
  %m_ptr.i.i = getelementptr inbounds i8, ptr %one.i, i64 8
  store ptr null, ptr %m_ptr.i.i, align 8
  %m_monomial_manager.i.i.i.i = getelementptr inbounds i8, ptr %0, i64 464
  %1 = load ptr, ptr %m_monomial_manager.i.i.i.i, align 8
  %m_unit.i.i.i.i = getelementptr inbounds i8, ptr %1, i64 112
  %2 = load ptr, ptr %m_unit.i.i.i.i, align 8
  %cmp.i.i = icmp eq ptr %2, %m
  br i1 %cmp.i.i, label %_ZN10polynomial7manager3imp3mulEPKNS_8monomialEPKNS_10polynomialE.exit, label %if.end6.i.i

if.end6.i.i:                                      ; preds = %entry
  %m_cheap_som_buffer.i.i = getelementptr inbounds i8, ptr %0, i64 664
  call void @_ZN10polynomial7manager3imp16cheap_som_buffer6addmulERK3mpzPKNS_8monomialEPKNS_10polynomialE(ptr noundef nonnull align 8 dereferenceable(24) %m_cheap_som_buffer.i.i, ptr noundef nonnull align 8 dereferenceable(16) %one.i, ptr noundef %m, ptr noundef %p)
  %3 = load ptr, ptr %m_cheap_som_buffer.i.i, align 8
  %m_tmp_as.i.i.i = getelementptr inbounds i8, ptr %0, i64 672
  %4 = load ptr, ptr %m_tmp_as.i.i.i, align 8
  %cmp.i.i6.i.i = icmp eq ptr %4, null
  br i1 %cmp.i.i6.i.i, label %_ZNK6vectorI3mpzLb0EjE4sizeEv.exit.i.i.i, label %if.end.i.i.i.i

if.end.i.i.i.i:                                   ; preds = %if.end6.i.i
  %arrayidx.i.i.i.i = getelementptr inbounds i8, ptr %4, i64 -4
  %5 = load i32, ptr %arrayidx.i.i.i.i, align 4
  br label %_ZNK6vectorI3mpzLb0EjE4sizeEv.exit.i.i.i

_ZNK6vectorI3mpzLb0EjE4sizeEv.exit.i.i.i:         ; preds = %if.end.i.i.i.i, %if.end6.i.i
  %retval.0.i.i.i.i = phi i32 [ %5, %if.end.i.i.i.i ], [ 0, %if.end6.i.i ]
  %m_tmp_ms.i.i.i = getelementptr inbounds i8, ptr %0, i64 680
  %6 = load ptr, ptr %m_tmp_ms.i.i.i, align 8
  %call5.i.i.i = call noundef ptr @_ZN10polynomial7manager3imp18mk_polynomial_coreEjP3mpzPKPNS_8monomialE(ptr noundef nonnull align 8 dereferenceable(824) %3, i32 noundef %retval.0.i.i.i.i, ptr noundef %4, ptr noundef %6)
  %7 = load ptr, ptr %m_tmp_as.i.i.i, align 8
  %tobool.not.i.i.i.i = icmp eq ptr %7, null
  br i1 %tobool.not.i.i.i.i, label %_ZN6vectorI3mpzLb0EjE5resetEv.exit.i.i.i, label %if.then.i.i.i.i

if.then.i.i.i.i:                                  ; preds = %_ZNK6vectorI3mpzLb0EjE4sizeEv.exit.i.i.i
  %arrayidx.i1.i.i.i = getelementptr inbounds i8, ptr %7, i64 -4
  store i32 0, ptr %arrayidx.i1.i.i.i, align 4
  br label %_ZN6vectorI3mpzLb0EjE5resetEv.exit.i.i.i

_ZN6vectorI3mpzLb0EjE5resetEv.exit.i.i.i:         ; preds = %if.then.i.i.i.i, %_ZNK6vectorI3mpzLb0EjE4sizeEv.exit.i.i.i
  %8 = load ptr, ptr %m_tmp_ms.i.i.i, align 8
  %tobool.not.i3.i.i.i = icmp eq ptr %8, null
  br i1 %tobool.not.i3.i.i.i, label %_ZN10polynomial7manager3imp3mulEPKNS_8monomialEPKNS_10polynomialE.exit, label %if.then.i4.i.i.i

if.then.i4.i.i.i:                                 ; preds = %_ZN6vectorI3mpzLb0EjE5resetEv.exit.i.i.i
  %arrayidx.i5.i.i.i = getelementptr inbounds i8, ptr %8, i64 -4
  store i32 0, ptr %arrayidx.i5.i.i.i, align 4
  br label %_ZN10polynomial7manager3imp3mulEPKNS_8monomialEPKNS_10polynomialE.exit

_ZN10polynomial7manager3imp3mulEPKNS_8monomialEPKNS_10polynomialE.exit: ; preds = %entry, %_ZN6vectorI3mpzLb0EjE5resetEv.exit.i.i.i, %if.then.i4.i.i.i
  %retval.0.i.i = phi ptr [ %p, %entry ], [ %call5.i.i.i, %_ZN6vectorI3mpzLb0EjE5resetEv.exit.i.i.i ], [ %call5.i.i.i, %if.then.i4.i.i.i ]
  call void @llvm.lifetime.end.p0(i64 16, ptr nonnull %one.i)
  ret ptr %retval.0.i.i
}